; Function Attrs: nounwind uwtable
define hidden void @opj_t2_destroy(ptr noundef %0) local_unnamed_addr #0 {
  %.not = icmp eq ptr %0, null
  br i1 %.not, label %3, label %2

2:                                                ; preds = %1
  tail call void @opj_free(ptr noundef nonnull %0) #6
  br label %3

3:                                                ; preds = %2, %1
  ret void
}